; ModuleID = 'bench/hdf5/original/H5Pfmpl.ll'
source_filename = "bench/hdf5/original/H5Pfmpl.ll"
target datalayout = "e-m:e-p270:32:32-p271:32:32-p272:64:64-i64:64-i128:128-f80:128-n8:16:32:64-S128"
target triple = "x86_64-pc-linux-gnu"

@.str = private unnamed_addr constant [11 x i8] c"file mount\00", align 1
@H5P_CLS_ROOT_g = external global ptr, align 8
@H5P_CLS_FILE_MOUNT_g = external global ptr, align 8
@H5P_CLS_FILE_MOUNT_ID_g = external global i64, align 8
@H5P_LST_FILE_MOUNT_ID_g = external global i64, align 8
@H5P_CLS_FMNT = local_unnamed_addr constant [1 x { ptr, i32, [4 x i8], ptr, ptr, ptr, ptr, ptr, ptr, ptr, ptr, ptr, ptr, ptr }] [{ ptr, i32, [4 x i8], ptr, ptr, ptr, ptr, ptr, ptr, ptr, ptr, ptr, ptr, ptr } { ptr @.str, i32 8, [4 x i8] zeroinitializer, ptr @H5P_CLS_ROOT_g, ptr @H5P_CLS_FILE_MOUNT_g, ptr @H5P_CLS_FILE_MOUNT_ID_g, ptr @H5P_LST_FILE_MOUNT_ID_g, ptr @H5P__fmnt_reg_prop, ptr null, ptr null, ptr null, ptr null, ptr null, ptr null }], align 16
@H5P_init_g = external local_unnamed_addr global i8, align 1
@H5_libterm_g = external local_unnamed_addr global i8, align 1
@.str.1 = private unnamed_addr constant [6 x i8] c"local\00", align 1
@H5F_def_local_g = internal constant i8 0, align 1
@.str.2 = private unnamed_addr constant [101 x i8] c"generated/home/dtcxzyw/WorkSpace/Projects/compilers/llvm-opt-benchmark/bench/hdf5/hdf5/src/H5Pfmpl.c\00", align 1
@__func__.H5P__fmnt_reg_prop = private unnamed_addr constant [19 x i8] c"H5P__fmnt_reg_prop\00", align 1
@H5E_PLIST_g = external local_unnamed_addr global i64, align 8
@H5E_CANTINSERT_g = external local_unnamed_addr global i64, align 8
@.str.3 = private unnamed_addr constant [33 x i8] c"can't insert property into class\00", align 1

; Function Attrs: nounwind uwtable
define internal range(i32 -1, 1) i32 @H5P__fmnt_reg_prop(ptr noundef %0) #0 {
  %2 = load i8, ptr @H5P_init_g, align 1, !tbaa !3, !range !7, !noundef !8
  %3 = trunc nuw i8 %2 to i1
  %4 = load i8, ptr @H5_libterm_g, align 1, !range !7
  %5 = trunc nuw i8 %4 to i1
  %6 = xor i1 %5, true
  %7 = select i1 %3, i1 true, i1 %6
  br i1 %7, label %8, label %15, !prof !9

8:                                                ; preds = %1
  %9 = tail call i32 @H5P__register_real(ptr noundef %0, ptr noundef nonnull @.str.1, i64 noundef 1, ptr noundef nonnull @H5F_def_local_g, ptr noundef null, ptr noundef null, ptr noundef null, ptr noundef null, ptr noundef null, ptr noundef null, ptr noundef null, ptr noundef null, ptr noundef null) #2
  %10 = icmp slt i32 %9, 0
  br i1 %10, label %11, label %15

11:                                               ; preds = %8
  %12 = load i64, ptr @H5E_PLIST_g, align 8, !tbaa !10
  %13 = load i64, ptr @H5E_CANTINSERT_g, align 8, !tbaa !10
  %14 = tail call i32 (ptr, ptr, i32, i64, i64, ptr, ...) @H5E_printf_stack(ptr noundef nonnull @.str.2, ptr noundef nonnull @__func__.H5P__fmnt_reg_prop, i32 noundef 113, i64 noundef %12, i64 noundef %13, ptr noundef nonnull @.str.3) #2
  br label %15

15:                                               ; preds = %11, %8, %1
  %.0 = phi i32 [ -1, %11 ], [ 0, %8 ], [ 0, %1 ]
  ret i32 %.0
}

declare i32 @H5P__register_real(ptr noundef, ptr noundef, i64 noundef, ptr noundef, ptr noundef, ptr noundef, ptr noundef, ptr noundef, ptr noundef, ptr noundef, ptr noundef, ptr noundef, ptr noundef) local_unnamed_addr #1

declare i32 @H5E_printf_stack(ptr noundef, ptr noundef, i32 noundef, i64 noundef, i64 noundef, ptr noundef, ...) local_unnamed_addr #1


!llvm.module.flags = !{!0, !1, !2}

!0 = !{i32 1, !"wchar_size", i32 4}
!1 = !{i32 8, !"PIC Level", i32 2}
!2 = !{i32 7, !"uwtable", i32 2}
!3 = !{!4, !4, i64 0}
!4 = !{!"_Bool", !5, i64 0}
!5 = !{!"omnipotent char", !6, i64 0}
!6 = !{!"Simple C/C++ TBAA"}
!7 = !{i8 0, i8 2}
!8 = !{}
!9 = !{!"branch_weights", !"expected", i32 2000, i32 1}
!10 = !{!11, !11, i64 0}
!11 = !{!"long", !5, i64 0}
